target datalayout = "e-m:e-p270:32:32-p271:32:32-p272:64:64-i64:64-i128:128-f80:128-n8:16:32:64-S128"
target triple = "x86_64-pc-linux-gnu"

%class.QVariant = type { %"struct.QVariant::Private" }
%"struct.QVariant::Private" = type { %union.anon, i64 }
%union.anon = type { ptr, [16 x i8] }
%class.QModelIndex = type { i32, i32, i64, ptr }

; Function Attrs: mustprogress uwtable
define linkonce_odr noundef ptr @_ZNK8QVariant5valueIPvEET_v(ptr noundef nonnull align 8 dereferenceable(32) %0) #0 comdat align 2 {
  %2 = alloca ptr, align 8
  store ptr %0, ptr %2, align 8
  %3 = load ptr, ptr %2, align 8
  %4 = call noundef ptr @_Z13qvariant_castIPvET_RK8QVariant(ptr noundef nonnull align 8 dereferenceable(32) %3)
  ret ptr %4
}

; Function Attrs: mustprogress uwtable
define linkonce_odr noundef ptr @_ZN14VariantPointerI9PrefsItemE5asPtrE8QVariant(ptr noundef %0) #0 comdat align 2 {
  %2 = alloca ptr, align 8
  store ptr %0, ptr %2, align 8
  %3 = call noundef ptr @_ZNK8QVariant5valueIPvEET_v(ptr noundef nonnull align 8 dereferenceable(32) %0)
  ret ptr %3
}

; Function Attrs: mustprogress nounwind uwtable
define linkonce_odr noundef ptr @_ZNK11QModelIndex5modelEv(ptr noundef nonnull align 8 dereferenceable(24) %0) #2 comdat align 2 {
  %2 = alloca ptr, align 8
  store ptr %0, ptr %2, align 8
  %3 = load ptr, ptr %2, align 8
  %4 = getelementptr inbounds %class.QModelIndex, ptr %3, i32 0, i32 3
  %5 = load ptr, ptr %4, align 8
  ret ptr %5
}

; Function Attrs: mustprogress uwtable
define noundef ptr @_ZNK20AdvancedPrefDelegate11indexToPrefERK11QModelIndex(ptr noundef nonnull align 8 dereferenceable(16) %0, ptr noundef nonnull align 8 dereferenceable(24) %1) #0 align 2 personality ptr @__gxx_personality_v0 {
  %3 = alloca ptr, align 8
  %4 = alloca ptr, align 8
  %5 = alloca %class.QVariant, align 8
  %6 = alloca %class.QVariant, align 8
  %7 = alloca ptr, align 8
  %8 = alloca i32, align 4
  store ptr %0, ptr %3, align 8
  store ptr %1, ptr %4, align 8
  %9 = load ptr, ptr %4, align 8
  %10 = call noundef ptr @_ZNK11QModelIndex5modelEv(ptr noundef nonnull align 8 dereferenceable(24) %9) #7
  %11 = load ptr, ptr %4, align 8
  %12 = load ptr, ptr %10, align 8
  %13 = getelementptr inbounds ptr, ptr %12, i64 18
  %14 = load ptr, ptr %13, align 8
  call void %14(ptr dead_on_unwind writable sret(%class.QVariant) align 8 %5, ptr noundef nonnull align 8 dereferenceable(16) %10, ptr noundef nonnull align 8 dereferenceable(24) %11, i32 noundef 256)
  invoke void @_ZN8QVariantC1ERKS_(ptr noundef nonnull align 8 dereferenceable(32) %6, ptr noundef nonnull align 8 dereferenceable(32) %5)
          to label %15 unwind label %18

15:                                               ; preds = %2
  %16 = invoke noundef ptr @_ZN14VariantPointerI9PrefsItemE5asPtrE8QVariant(ptr noundef %6)
          to label %17 unwind label %22

17:                                               ; preds = %15
  call void @_ZN8QVariantD1Ev(ptr noundef nonnull align 8 dereferenceable(32) %6) #7
  call void @_ZN8QVariantD1Ev(ptr noundef nonnull align 8 dereferenceable(32) %5) #7
  ret ptr %16

18:                                               ; preds = %2
  %19 = landingpad { ptr, i32 }
          cleanup
  %20 = extractvalue { ptr, i32 } %19, 0
  store ptr %20, ptr %7, align 8
  %21 = extractvalue { ptr, i32 } %19, 1
  store i32 %21, ptr %8, align 4
  br label %26

22:                                               ; preds = %15
  %23 = landingpad { ptr, i32 }
          cleanup
  %24 = extractvalue { ptr, i32 } %23, 0
  store ptr %24, ptr %7, align 8
  %25 = extractvalue { ptr, i32 } %23, 1
  store i32 %25, ptr %8, align 4
  call void @_ZN8QVariantD1Ev(ptr noundef nonnull align 8 dereferenceable(32) %6) #7
  br label %26

26:                                               ; preds = %22, %18
  call void @_ZN8QVariantD1Ev(ptr noundef nonnull align 8 dereferenceable(32) %5) #7
  br label %27

27:                                               ; preds = %26
  %28 = load ptr, ptr %7, align 8
  %29 = load i32, ptr %8, align 4
  %30 = insertvalue { ptr, i32 } poison, ptr %28, 0
  %31 = insertvalue { ptr, i32 } %30, i32 %29, 1
  resume { ptr, i32 } %31
}

; Function Attrs: mustprogress uwtable
define void @_ZNK20AdvancedPrefDelegate13setEditorDataEP7QWidgetRK11QModelIndex(ptr noundef nonnull align 8 dereferenceable(16) %0, ptr noundef %1, ptr noundef nonnull align 8 dereferenceable(24) %2) unnamed_addr #0 align 2 {
  %4 = alloca ptr, align 8
  %5 = alloca ptr, align 8
  %6 = alloca ptr, align 8
  %7 = alloca ptr, align 8
  %8 = alloca ptr, align 8
  store ptr %0, ptr %4, align 8
  store ptr %1, ptr %5, align 8
  store ptr %2, ptr %6, align 8
  %9 = load ptr, ptr %4, align 8
  %10 = load ptr, ptr %6, align 8
  %11 = call noundef ptr @_ZNK20AdvancedPrefDelegate11indexToPrefERK11QModelIndex(ptr noundef nonnull align 8 dereferenceable(16) %9, ptr noundef nonnull align 8 dereferenceable(24) %10)
  store ptr %11, ptr %7, align 8
  %12 = call noundef ptr @_ZN17PreferenceManager8instanceEv()
  %13 = load ptr, ptr %7, align 8
  %14 = call noundef ptr @_ZN17PreferenceManager13getPreferenceEP9PrefsItem(ptr noundef nonnull align 8 dereferenceable(16) %12, ptr noundef %13)
  store ptr %14, ptr %8, align 8
  %15 = load ptr, ptr %8, align 8
  %16 = icmp ne ptr %15, null
  br i1 %16, label %17, label %24

17:                                               ; preds = %3
  %18 = load ptr, ptr %8, align 8
  %19 = load ptr, ptr %5, align 8
  %20 = load ptr, ptr %6, align 8
  %21 = load ptr, ptr %18, align 8
  %22 = getelementptr inbounds ptr, ptr %21, i64 13
  %23 = load ptr, ptr %22, align 8
  call void %23(ptr noundef nonnull align 8 dereferenceable(24) %18, ptr noundef %19, ptr noundef nonnull align 8 dereferenceable(24) %20)
  br label %24

24:                                               ; preds = %17, %3
  ret void
}