; Function Attrs: mustprogress uwtable
define void @_ZNK20AdvancedPrefDelegate13setEditorDataEP7QWidgetRK11QModelIndex(ptr nocapture nonnull readnone align 8 %0, ptr noundef %1, ptr noundef nonnull align 8 dereferenceable(24) %2) unnamed_addr #0 align 2 personality ptr @__gxx_personality_v0 {
  %4 = alloca %class.QVariant, align 8
  %5 = alloca %class.QVariant, align 8
  call void @llvm.lifetime.start.p0(i64 32, ptr nonnull %4)
  call void @llvm.lifetime.start.p0(i64 32, ptr nonnull %5)
  %6 = getelementptr inbounds i8, ptr %2, i64 16
  %7 = load ptr, ptr %6, align 8
  %8 = load ptr, ptr %7, align 8
  %9 = getelementptr inbounds i8, ptr %8, i64 144
  %10 = load ptr, ptr %9, align 8
  call void %10(ptr dead_on_unwind nonnull writable sret(%class.QVariant) align 8 %4, ptr noundef nonnull align 8 dereferenceable(16) %7, ptr noundef nonnull align 8 dereferenceable(24) %2, i32 noundef 256)
  invoke void @_ZN8QVariantC1ERKS_(ptr noundef nonnull align 8 dereferenceable(32) %5, ptr noundef nonnull align 8 dereferenceable(32) %4)
          to label %11 unwind label %13

11:                                               ; preds = %3
  %12 = invoke noundef ptr @_Z13qvariant_castIPvET_RK8QVariant(ptr noundef nonnull align 8 dereferenceable(32) %5)
          to label %_ZNK20AdvancedPrefDelegate11indexToPrefERK11QModelIndex.exit unwind label %15

13:                                               ; preds = %3
  %14 = landingpad { ptr, i32 }
          cleanup
  br label %17

15:                                               ; preds = %11
  %16 = landingpad { ptr, i32 }
          cleanup
  call void @_ZN8QVariantD1Ev(ptr noundef nonnull align 8 dereferenceable(32) %5) #7
  br label %17

17:                                               ; preds = %15, %13
  %.pn.i = phi { ptr, i32 } [ %16, %15 ], [ %14, %13 ]
  call void @_ZN8QVariantD1Ev(ptr noundef nonnull align 8 dereferenceable(32) %4) #7
  resume { ptr, i32 } %.pn.i

_ZNK20AdvancedPrefDelegate11indexToPrefERK11QModelIndex.exit: ; preds = %11
  call void @_ZN8QVariantD1Ev(ptr noundef nonnull align 8 dereferenceable(32) %5) #7
  call void @_ZN8QVariantD1Ev(ptr noundef nonnull align 8 dereferenceable(32) %4) #7
  call void @llvm.lifetime.end.p0(i64 32, ptr nonnull %4)
  call void @llvm.lifetime.end.p0(i64 32, ptr nonnull %5)
  %18 = call noundef ptr @_ZN17PreferenceManager8instanceEv()
  %19 = call noundef ptr @_ZN17PreferenceManager13getPreferenceEP9PrefsItem(ptr noundef nonnull align 8 dereferenceable(16) %18, ptr noundef %12)
  %.not = icmp eq ptr %19, null
  br i1 %.not, label %24, label %20

20:                                               ; preds = %_ZNK20AdvancedPrefDelegate11indexToPrefERK11QModelIndex.exit
  %21 = load ptr, ptr %19, align 8
  %22 = getelementptr inbounds i8, ptr %21, i64 104
  %23 = load ptr, ptr %22, align 8
  call void %23(ptr noundef nonnull align 8 dereferenceable(24) %19, ptr noundef %1, ptr noundef nonnull align 8 dereferenceable(24) %2)
  br label %24

24:                                               ; preds = %20, %_ZNK20AdvancedPrefDelegate11indexToPrefERK11QModelIndex.exit
  ret void
}